target datalayout = "e-m:e-p270:32:32-p271:32:32-p272:64:64-i64:64-i128:128-f80:128-n8:16:32:64-S128"
target triple = "x86_64-pc-linux-gnu"

%"class.cv::Size_" = type { i32, i32 }
%"class.perf::TestBase" = type { %"class.testing::Test", %"class.std::vector", %"class.std::vector", i32, %"class.std::vector.0", i64, i64, i64, i32, i32, i32, i32, i32, [4 x i8], %"struct.perf::performance_metrics", i8, %"class.perf::TestBase::_declareHelper" }
%"class.testing::Test" = type { ptr, %"class.testing::internal::scoped_ptr" }
%"class.testing::internal::scoped_ptr" = type { ptr }
%"class.std::vector" = type { %"struct.std::_Vector_base" }
%"struct.std::_Vector_base" = type { %"struct.std::_Vector_base<std::pair<int, cv::Size_<int>>, std::allocator<std::pair<int, cv::Size_<int>>>>::_Vector_impl" }
%"struct.std::_Vector_base<std::pair<int, cv::Size_<int>>, std::allocator<std::pair<int, cv::Size_<int>>>>::_Vector_impl" = type { %"struct.std::_Vector_base<std::pair<int, cv::Size_<int>>, std::allocator<std::pair<int, cv::Size_<int>>>>::_Vector_impl_data" }
%"struct.std::_Vector_base<std::pair<int, cv::Size_<int>>, std::allocator<std::pair<int, cv::Size_<int>>>>::_Vector_impl_data" = type { ptr, ptr, ptr }
%"class.std::vector.0" = type { %"struct.std::_Vector_base.1" }
%"struct.std::_Vector_base.1" = type { %"struct.std::_Vector_base<long, std::allocator<long>>::_Vector_impl" }
%"struct.std::_Vector_base<long, std::allocator<long>>::_Vector_impl" = type { %"struct.std::_Vector_base<long, std::allocator<long>>::_Vector_impl_data" }
%"struct.std::_Vector_base<long, std::allocator<long>>::_Vector_impl_data" = type { ptr, ptr, ptr }
%"struct.perf::performance_metrics" = type <{ i64, i64, i32, i32, double, double, double, double, double, double, double, i32, [4 x i8] }>
%"class.perf::TestBase::_declareHelper" = type { ptr }
%"class.cv::Mat" = type { i32, i32, i32, i32, ptr, ptr, ptr, ptr, ptr, ptr, %"struct.cv::MatSize", %"struct.cv::MatStep" }
%"struct.cv::MatSize" = type { ptr }
%"struct.cv::MatStep" = type { ptr, [2 x i64] }
%"class.cv::_InputOutputArray" = type { %"class.cv::_OutputArray" }
%"class.cv::_OutputArray" = type { %"class.cv::_InputArray" }
%"class.cv::_InputArray" = type { i32, ptr, %"class.cv::Size_" }

; Function Attrs: inlinehint mustprogress nounwind uwtable
define linkonce_odr hidden void @_ZN2cv5Size_IiEC2Ev(ptr noundef nonnull align 4 dereferenceable(8) %0) unnamed_addr #4 comdat align 2 {
  %2 = alloca ptr, align 8
  store ptr %0, ptr %2, align 8, !tbaa !4
  %3 = load ptr, ptr %2, align 8
  %4 = getelementptr inbounds nuw %"class.cv::Size_", ptr %3, i32 0, i32 0
  store i32 0, ptr %4, align 4, !tbaa !11
  %5 = getelementptr inbounds nuw %"class.cv::Size_", ptr %3, i32 0, i32 1
  store i32 0, ptr %5, align 4, !tbaa !13
  ret void
}

; Function Attrs: inlinehint mustprogress uwtable
define linkonce_odr hidden void @_ZN2cv11_InputArrayC2Ev(ptr noundef nonnull align 8 dereferenceable(24) %0) unnamed_addr #11 comdat align 2 {
  %2 = alloca ptr, align 8
  store ptr %0, ptr %2, align 8, !tbaa !98
  %3 = load ptr, ptr %2, align 8
  %4 = getelementptr inbounds nuw %"class.cv::_InputArray", ptr %3, i32 0, i32 2
  call void @_ZN2cv5Size_IiEC2Ev(ptr noundef nonnull align 4 dereferenceable(8) %4)
  call void @_ZN2cv11_InputArray4initEiPKv(ptr noundef nonnull align 8 dereferenceable(24) %3, i32 noundef 0, ptr noundef null)
  ret void
}

; Function Attrs: inlinehint mustprogress nounwind uwtable
define linkonce_odr hidden void @_ZN2cv11_InputArray4initEiPKv(ptr noundef nonnull align 8 dereferenceable(24) %0, i32 noundef %1, ptr noundef %2) #4 comdat align 2 {
  %4 = alloca ptr, align 8
  %5 = alloca i32, align 4
  %6 = alloca ptr, align 8
  store ptr %0, ptr %4, align 8, !tbaa !98
  store i32 %1, ptr %5, align 4, !tbaa !9
  store ptr %2, ptr %6, align 8, !tbaa !72
  %7 = load ptr, ptr %4, align 8
  %8 = load i32, ptr %5, align 4, !tbaa !9
  %9 = getelementptr inbounds nuw %"class.cv::_InputArray", ptr %7, i32 0, i32 0
  store i32 %8, ptr %9, align 8, !tbaa !595
  %10 = load ptr, ptr %6, align 8, !tbaa !72
  %11 = getelementptr inbounds nuw %"class.cv::_InputArray", ptr %7, i32 0, i32 1
  store ptr %10, ptr %11, align 8, !tbaa !597
  ret void
}

; Function Attrs: inlinehint mustprogress uwtable
define linkonce_odr hidden void @_ZN2cv12_OutputArrayC2Ev(ptr noundef nonnull align 8 dereferenceable(24) %0) unnamed_addr #11 comdat align 2 personality ptr @__gxx_personality_v0 {
  %2 = alloca ptr, align 8
  %3 = alloca ptr, align 8
  %4 = alloca i32, align 4
  store ptr %0, ptr %2, align 8, !tbaa !593
  %5 = load ptr, ptr %2, align 8
  call void @_ZN2cv11_InputArrayC2Ev(ptr noundef nonnull align 8 dereferenceable(24) %5)
  invoke void @_ZN2cv11_InputArray4initEiPKv(ptr noundef nonnull align 8 dereferenceable(24) %5, i32 noundef 33554432, ptr noundef null)
          to label %6 unwind label %7

6:                                                ; preds = %1
  ret void

7:                                                ; preds = %1
  %8 = landingpad { ptr, i32 }
          cleanup
  %9 = extractvalue { ptr, i32 } %8, 0
  store ptr %9, ptr %3, align 8
  %10 = extractvalue { ptr, i32 } %8, 1
  store i32 %10, ptr %4, align 4
  call void @_ZN2cv11_InputArrayD2Ev(ptr noundef nonnull align 8 dereferenceable(24) %5) #3
  br label %11

11:                                               ; preds = %7
  %12 = load ptr, ptr %3, align 8
  %13 = load i32, ptr %4, align 4
  %14 = insertvalue { ptr, i32 } poison, ptr %12, 0
  %15 = insertvalue { ptr, i32 } %14, i32 %13, 1
  resume { ptr, i32 } %15
}

; Function Attrs: mustprogress nounwind uwtable
define linkonce_odr hidden void @_ZN4perf8TestBase11setVerifiedEv(ptr noundef nonnull align 8 dereferenceable(248) %0) #9 comdat align 2 {
  %2 = alloca ptr, align 8
  store ptr %0, ptr %2, align 8, !tbaa !231
  %3 = load ptr, ptr %2, align 8
  %4 = getelementptr inbounds nuw %"class.perf::TestBase", ptr %3, i32 0, i32 15
  store i8 1, ptr %4, align 8, !tbaa !232
  ret void
}

; Function Attrs: inlinehint mustprogress nounwind uwtable
define linkonce_odr hidden noundef ptr @_ZN2cv3Mat3ptrIfEEPT_i(ptr noundef nonnull align 8 dereferenceable(96) %0, i32 noundef %1) #4 comdat align 2 {
  %3 = alloca ptr, align 8
  %4 = alloca i32, align 4
  store ptr %0, ptr %3, align 8, !tbaa !96
  store i32 %1, ptr %4, align 4, !tbaa !9
  %5 = load ptr, ptr %3, align 8
  %6 = getelementptr inbounds nuw %"class.cv::Mat", ptr %5, i32 0, i32 4
  %7 = load ptr, ptr %6, align 8, !tbaa !228
  %8 = getelementptr inbounds nuw %"class.cv::Mat", ptr %5, i32 0, i32 11
  %9 = getelementptr inbounds nuw %"struct.cv::MatStep", ptr %8, i32 0, i32 0
  %10 = load ptr, ptr %9, align 8, !tbaa !229
  %11 = getelementptr inbounds i64, ptr %10, i64 0
  %12 = load i64, ptr %11, align 8, !tbaa !230
  %13 = load i32, ptr %4, align 4, !tbaa !9
  %14 = sext i32 %13 to i64
  %15 = mul i64 %12, %14
  %16 = getelementptr inbounds nuw i8, ptr %7, i64 %15
  ret ptr %16
}

; Function Attrs: inlinehint mustprogress nounwind uwtable
define linkonce_odr hidden void @_ZN2cv11_InputArrayD2Ev(ptr noundef nonnull align 8 dereferenceable(24) %0) unnamed_addr #4 comdat align 2 {
  %2 = alloca ptr, align 8
  store ptr %0, ptr %2, align 8, !tbaa !98
  ret void
}

; Function Attrs: inlinehint mustprogress uwtable
define linkonce_odr hidden void @_ZN2cv17_InputOutputArrayC2ERNS_3MatE(ptr noundef nonnull align 8 dereferenceable(24) %0, ptr noundef nonnull align 8 dereferenceable(96) %1) unnamed_addr #11 comdat align 2 personality ptr @__gxx_personality_v0 {
  %3 = alloca ptr, align 8
  %4 = alloca ptr, align 8
  %5 = alloca ptr, align 8
  %6 = alloca i32, align 4
  store ptr %0, ptr %3, align 8, !tbaa !94
  store ptr %1, ptr %4, align 8, !tbaa !96
  %7 = load ptr, ptr %3, align 8
  call void @_ZN2cv12_OutputArrayC2Ev(ptr noundef nonnull align 8 dereferenceable(24) %7)
  %8 = load ptr, ptr %4, align 8, !tbaa !96
  invoke void @_ZN2cv11_InputArray4initEiPKv(ptr noundef nonnull align 8 dereferenceable(24) %7, i32 noundef 50397184, ptr noundef %8)
          to label %9 unwind label %10

9:                                                ; preds = %2
  ret void

10:                                               ; preds = %2
  %11 = landingpad { ptr, i32 }
          cleanup
  %12 = extractvalue { ptr, i32 } %11, 0
  store ptr %12, ptr %5, align 8
  %13 = extractvalue { ptr, i32 } %11, 1
  store i32 %13, ptr %6, align 4
  call void @_ZN2cv11_InputArrayD2Ev(ptr noundef nonnull align 8 dereferenceable(24) %7) #3
  br label %14

14:                                               ; preds = %10
  %15 = load ptr, ptr %5, align 8
  %16 = load i32, ptr %6, align 4
  %17 = insertvalue { ptr, i32 } poison, ptr %15, 0
  %18 = insertvalue { ptr, i32 } %17, i32 %16, 1
  resume { ptr, i32 } %18
}

; Function Attrs: mustprogress uwtable
define hidden void @_ZN11opencv_test23test_len_hal_normL1_f3212PerfTestBodyEv(ptr noundef nonnull align 8 dereferenceable(256) %0) unnamed_addr #6 align 2 personality ptr @__gxx_personality_v0 {
  %2 = alloca ptr, align 8
  %3 = alloca i32, align 4
  %4 = alloca %"class.cv::Mat", align 8
  %5 = alloca %"class.cv::Mat", align 8
  %6 = alloca ptr, align 8
  %7 = alloca i32, align 4
  %8 = alloca %"class.cv::_InputOutputArray", align 8
  %9 = alloca %"class.cv::_InputOutputArray", align 8
  %10 = alloca double, align 8
  store ptr %0, ptr %2, align 8, !tbaa !241
  %11 = load ptr, ptr %2, align 8
  call void @llvm.lifetime.start.p0(i64 4, ptr %3) #3
  %12 = getelementptr inbounds i8, ptr %11, i64 248
  %13 = call noundef nonnull align 4 dereferenceable(4) ptr @_ZNK7testing18WithParamInterfaceIiE8GetParamEv(ptr noundef nonnull align 8 dereferenceable(8) %12)
  %14 = load i32, ptr %13, align 4, !tbaa !9
  store i32 %14, ptr %3, align 4, !tbaa !9
  call void @llvm.lifetime.start.p0(i64 96, ptr %4) #3
  %15 = load i32, ptr %3, align 4, !tbaa !9
  call void @_ZN2cv3MatC1Eiii(ptr noundef nonnull align 8 dereferenceable(96) %4, i32 noundef 1, i32 noundef %15, i32 noundef 5)
  call void @llvm.lifetime.start.p0(i64 96, ptr %5) #3
  %16 = load i32, ptr %3, align 4, !tbaa !9
  invoke void @_ZN2cv3MatC1Eiii(ptr noundef nonnull align 8 dereferenceable(96) %5, i32 noundef 1, i32 noundef %16, i32 noundef 5)
          to label %17 unwind label %42

17:                                               ; preds = %1
  %18 = getelementptr inbounds nuw %"class.perf::TestBase", ptr %11, i32 0, i32 16
  call void @llvm.lifetime.start.p0(i64 24, ptr %8) #3
  invoke void @_ZN2cv17_InputOutputArrayC2ERNS_3MatE(ptr noundef nonnull align 8 dereferenceable(24) %8, ptr noundef nonnull align 8 dereferenceable(96) %4)
          to label %19 unwind label %46

19:                                               ; preds = %17
  call void @llvm.lifetime.start.p0(i64 24, ptr %9) #3
  invoke void @_ZN2cv17_InputOutputArrayC2ERNS_3MatE(ptr noundef nonnull align 8 dereferenceable(24) %9, ptr noundef nonnull align 8 dereferenceable(96) %5)
          to label %20 unwind label %50

20:                                               ; preds = %19
  %21 = invoke noundef nonnull align 8 dereferenceable(8) ptr @_ZN4perf8TestBase14_declareHelper2inERKN2cv17_InputOutputArrayES5_NS0_10WarmUpTypeE(ptr noundef nonnull align 8 dereferenceable(8) %18, ptr noundef nonnull align 8 dereferenceable(24) %8, ptr noundef nonnull align 8 dereferenceable(24) %9, i32 noundef 2)
          to label %22 unwind label %54

22:                                               ; preds = %20
  call void @_ZN2cv11_InputArrayD2Ev(ptr noundef nonnull align 8 dereferenceable(24) %9) #3
  call void @llvm.lifetime.end.p0(i64 24, ptr %9) #3
  call void @_ZN2cv11_InputArrayD2Ev(ptr noundef nonnull align 8 dereferenceable(24) %8) #3
  call void @llvm.lifetime.end.p0(i64 24, ptr %8) #3
  call void @llvm.lifetime.start.p0(i64 8, ptr %10) #3
  br label %23

23:                                               ; preds = %41, %22
  %24 = invoke noundef zeroext i1 @_ZN4perf8TestBase4nextEv(ptr noundef nonnull align 8 dereferenceable(248) %11)
          to label %25 unwind label %60

25:                                               ; preds = %23
  br i1 %24, label %26, label %29

26:                                               ; preds = %25
  %27 = invoke noundef zeroext i1 @_ZN4perf8TestBase10startTimerEv(ptr noundef nonnull align 8 dereferenceable(248) %11)
          to label %28 unwind label %60

28:                                               ; preds = %26
  br label %29

29:                                               ; preds = %28, %25
  %30 = phi i1 [ false, %25 ], [ %27, %28 ]
  br i1 %30, label %31, label %64

31:                                               ; preds = %29
  %32 = invoke noundef ptr @_ZN2cv3Mat3ptrIfEEPT_i(ptr noundef nonnull align 8 dereferenceable(96) %4, i32 noundef 0)
          to label %33 unwind label %60

33:                                               ; preds = %31
  %34 = invoke noundef ptr @_ZN2cv3Mat3ptrIfEEPT_i(ptr noundef nonnull align 8 dereferenceable(96) %5, i32 noundef 0)
          to label %35 unwind label %60

35:                                               ; preds = %33
  %36 = load i32, ptr %3, align 4, !tbaa !9
  %37 = invoke noundef float @_ZN2cv3hal7normL1_EPKfS2_i(ptr noundef %32, ptr noundef %34, i32 noundef %36)
          to label %38 unwind label %60

38:                                               ; preds = %35
  %39 = fpext float %37 to double
  store double %39, ptr %10, align 8, !tbaa !80
  br label %40

40:                                               ; preds = %38
  invoke void @_ZN4perf8TestBase9stopTimerEv(ptr noundef nonnull align 8 dereferenceable(248) %11)
          to label %41 unwind label %60

41:                                               ; preds = %40
  br label %23, !llvm.loop !243

42:                                               ; preds = %1
  %43 = landingpad { ptr, i32 }
          cleanup
  %44 = extractvalue { ptr, i32 } %43, 0
  store ptr %44, ptr %6, align 8
  %45 = extractvalue { ptr, i32 } %43, 1
  store i32 %45, ptr %7, align 4
  br label %67

46:                                               ; preds = %17
  %47 = landingpad { ptr, i32 }
          cleanup
  %48 = extractvalue { ptr, i32 } %47, 0
  store ptr %48, ptr %6, align 8
  %49 = extractvalue { ptr, i32 } %47, 1
  store i32 %49, ptr %7, align 4
  br label %59

50:                                               ; preds = %19
  %51 = landingpad { ptr, i32 }
          cleanup
  %52 = extractvalue { ptr, i32 } %51, 0
  store ptr %52, ptr %6, align 8
  %53 = extractvalue { ptr, i32 } %51, 1
  store i32 %53, ptr %7, align 4
  br label %58

54:                                               ; preds = %20
  %55 = landingpad { ptr, i32 }
          cleanup
  %56 = extractvalue { ptr, i32 } %55, 0
  store ptr %56, ptr %6, align 8
  %57 = extractvalue { ptr, i32 } %55, 1
  store i32 %57, ptr %7, align 4
  call void @_ZN2cv11_InputArrayD2Ev(ptr noundef nonnull align 8 dereferenceable(24) %9) #3
  br label %58

58:                                               ; preds = %54, %50
  call void @llvm.lifetime.end.p0(i64 24, ptr %9) #3
  call void @_ZN2cv11_InputArrayD2Ev(ptr noundef nonnull align 8 dereferenceable(24) %8) #3
  br label %59

59:                                               ; preds = %58, %46
  call void @llvm.lifetime.end.p0(i64 24, ptr %8) #3
  br label %66

60:                                               ; preds = %64, %40, %35, %33, %31, %26, %23
  %61 = landingpad { ptr, i32 }
          cleanup
  %62 = extractvalue { ptr, i32 } %61, 0
  store ptr %62, ptr %6, align 8
  %63 = extractvalue { ptr, i32 } %61, 1
  store i32 %63, ptr %7, align 4
  call void @llvm.lifetime.end.p0(i64 8, ptr %10) #3
  br label %66

64:                                               ; preds = %29
  invoke void @_ZN4perf8TestBase11setVerifiedEv(ptr noundef nonnull align 8 dereferenceable(248) %11)
          to label %65 unwind label %60

65:                                               ; preds = %64
  call void @llvm.lifetime.end.p0(i64 8, ptr %10) #3
  call void @_ZN2cv3MatD1Ev(ptr noundef nonnull align 8 dereferenceable(96) %5) #3
  call void @llvm.lifetime.end.p0(i64 96, ptr %5) #3
  call void @_ZN2cv3MatD1Ev(ptr noundef nonnull align 8 dereferenceable(96) %4) #3
  call void @llvm.lifetime.end.p0(i64 96, ptr %4) #3
  call void @llvm.lifetime.end.p0(i64 4, ptr %3) #3
  ret void

66:                                               ; preds = %60, %59
  call void @_ZN2cv3MatD1Ev(ptr noundef nonnull align 8 dereferenceable(96) %5) #3
  br label %67

67:                                               ; preds = %66, %42
  call void @llvm.lifetime.end.p0(i64 96, ptr %5) #3
  call void @_ZN2cv3MatD1Ev(ptr noundef nonnull align 8 dereferenceable(96) %4) #3
  call void @llvm.lifetime.end.p0(i64 96, ptr %4) #3
  call void @llvm.lifetime.end.p0(i64 4, ptr %3) #3
  br label %68

68:                                               ; preds = %67
  %69 = load ptr, ptr %6, align 8
  %70 = load i32, ptr %7, align 4
  %71 = insertvalue { ptr, i32 } poison, ptr %69, 0
  %72 = insertvalue { ptr, i32 } %71, i32 %70, 1
  resume { ptr, i32 } %72
}